(dp0
S'sheep'
p1
I17
sS'horse'
p2
I13
sS'bicycle'
p3
I2
sS'background'
p4
I1
sS'cow'
p5
I10
sS'sofa'
p6
I18
sS'bus'
p7
I6
sS'aeroplane'
p8
I0
sS'dog'
p9
I12
sS'cat'
p10
I8
sS'person'
p11
I15
sS'train'
p12
I19
sS'diningtable'
p13
I11
sS'bottle'
p14
I5
sS'car'
p15
I7
sS'pottedplant'
p16
I16
sS'tvmonitor'
p17
I20
sS'chair'
p18
I9
sS'bird'
p19
I3
sS'boat'
p20
I4
sS'motorbike'
p21
I14
s.